; Function Attrs: mustprogress uwtable
define hidden noundef zeroext i1 @_ZN7nanogui12VScrollPanel12scroll_eventERKNS_5ArrayIiLm2EEERKNS1_IfLm2EEE(ptr noundef nonnull align 8 dereferenceable(149) %0, ptr noundef nonnull align 4 dereferenceable(8) %1, ptr noundef nonnull align 4 dereferenceable(8) %2) unnamed_addr #0 align 2 {
  %4 = alloca %"struct.nanogui::Array", align 8
  %5 = alloca %"struct.nanogui::Array", align 4
  %6 = getelementptr inbounds i8, ptr %0, i64 64
  %7 = load ptr, ptr %6, align 8
  %8 = getelementptr inbounds i8, ptr %0, i64 72
  %9 = load ptr, ptr %8, align 8
  %10 = icmp eq ptr %7, %9
  br i1 %10, label %49, label %11

11:                                               ; preds = %3
  %12 = getelementptr inbounds i8, ptr %0, i64 140
  %13 = load i32, ptr %12, align 4
  %14 = getelementptr inbounds i8, ptr %0, i64 52
  %15 = load i32, ptr %14, align 4
  %16 = icmp sgt i32 %13, %15
  br i1 %16, label %_ZN7nanoguimiERKNS_5ArrayIiLm2EEES3_.exit.critedge, label %49

_ZN7nanoguimiERKNS_5ArrayIiLm2EEES3_.exit.critedge: ; preds = %11
  %17 = load ptr, ptr %7, align 8
  %18 = getelementptr inbounds i8, ptr %2, i64 4
  %19 = load float, ptr %18, align 4
  %20 = sitofp i32 %15 to float
  %21 = fmul float %19, %20
  %22 = fmul float %21, 2.500000e-01
  %23 = getelementptr inbounds i8, ptr %0, i64 144
  %24 = load float, ptr %23, align 8
  %25 = sitofp i32 %13 to float
  %26 = fdiv float %22, %25
  %27 = fsub float %24, %26
  %28 = fcmp olt float %27, 1.000000e+00
  %29 = select i1 %28, float %27, float 1.000000e+00
  %30 = fcmp ogt float %29, 0.000000e+00
  %.sroa.speculated = select i1 %30, float %29, float 0.000000e+00
  store float %.sroa.speculated, ptr %23, align 8
  %31 = getelementptr inbounds i8, ptr %17, i64 40
  %32 = load i32, ptr %31, align 4
  %.sroa_idx19 = getelementptr inbounds i8, ptr %17, i64 44
  %33 = load i32, ptr %.sroa_idx19, align 4
  %34 = fneg float %.sroa.speculated
  %35 = sub nsw i32 %13, %15
  %36 = sitofp i32 %35 to float
  %37 = fmul float %36, %34
  %38 = fptosi float %37 to i32
  %.sroa.217.0.insert.ext = zext i32 %38 to i64
  %.sroa.217.0.insert.shift = shl nuw i64 %.sroa.217.0.insert.ext, 32
  store i64 %.sroa.217.0.insert.shift, ptr %31, align 8
  %39 = getelementptr inbounds i8, ptr %0, i64 148
  store i8 1, ptr %39, align 4
  %40 = getelementptr inbounds i8, ptr %0, i64 40
  %41 = load <2 x i32>, ptr %1, align 4
  %42 = load <2 x i32>, ptr %40, align 8
  %43 = sub nsw <2 x i32> %41, %42
  store <2 x i32> %43, ptr %4, align 8
  %44 = sub nsw i32 %33, %38
  store i32 %32, ptr %5, align 4
  %.sroa_idx32 = getelementptr inbounds i8, ptr %5, i64 4
  store i32 %44, ptr %.sroa_idx32, align 4
  %45 = load ptr, ptr %17, align 8
  %46 = getelementptr inbounds i8, ptr %45, i64 40
  %47 = load ptr, ptr %46, align 8
  %48 = call noundef zeroext i1 %47(ptr noundef nonnull align 8 dereferenceable(140) %17, ptr noundef nonnull align 4 dereferenceable(8) %4, ptr noundef nonnull align 4 dereferenceable(8) %5, i32 noundef 0, i32 noundef 0)
  br label %51

49:                                               ; preds = %11, %3
  %50 = tail call noundef zeroext i1 @_ZN7nanogui6Widget12scroll_eventERKNS_5ArrayIiLm2EEERKNS1_IfLm2EEE(ptr noundef nonnull align 8 dereferenceable(140) %0, ptr noundef nonnull align 4 dereferenceable(8) %1, ptr noundef nonnull align 4 dereferenceable(8) %2)
  br label %51

51:                                               ; preds = %49, %_ZN7nanoguimiERKNS_5ArrayIiLm2EEES3_.exit.critedge
  %.0 = phi i1 [ %50, %49 ], [ true, %_ZN7nanoguimiERKNS_5ArrayIiLm2EEES3_.exit.critedge ]
  ret i1 %.0
}